target datalayout = "e-m:e-p270:32:32-p271:32:32-p272:64:64-i64:64-i128:128-f80:128-n8:16:32:64-S128"
target triple = "x86_64-pc-linux-gnu"

%"class.std::vector.5" = type { %"struct.std::_Vector_base.6" }
%"struct.std::_Vector_base.6" = type { %"struct.std::_Vector_base<vcg::Color4<unsigned char>, std::allocator<vcg::Color4<unsigned char>>>::_Vector_impl" }
%"struct.std::_Vector_base<vcg::Color4<unsigned char>, std::allocator<vcg::Color4<unsigned char>>>::_Vector_impl" = type { %"struct.std::_Vector_base<vcg::Color4<unsigned char>, std::allocator<vcg::Color4<unsigned char>>>::_Vector_impl_data" }
%"struct.std::_Vector_base<vcg::Color4<unsigned char>, std::allocator<vcg::Color4<unsigned char>>>::_Vector_impl_data" = type { ptr, ptr, ptr }
%class.FilterDockDialog = type { %class.QDockWidget, ptr, ptr, ptr, %class.RichParameterList, i32, ptr, i8, [7 x i8], %class.MeshModelState, %class.MeshModelState, %class.RichParameterList, ptr, ptr, ptr }
%class.QDockWidget = type { %class.QWidget }
%class.QWidget = type { %class.QObject, %class.QPaintDevice, ptr }
%class.QObject = type { ptr, %class.QScopedPointer }
%class.QScopedPointer = type { ptr }
%class.QPaintDevice = type { ptr, i16, ptr }
%class.MeshModelState = type <{ i32, [4 x i8], ptr, %"class.std::vector.19", %"class.std::vector.5", %"class.std::vector.5", %"class.std::vector.24", %"class.std::vector.24", %"class.std::vector.24", %"class.std::vector.29", %"class.std::vector.29", %"class.vcg::Matrix44", %"class.vcg::Shot", [4 x i8] }>
%"class.std::vector.19" = type { %"struct.std::_Vector_base.20" }
%"struct.std::_Vector_base.20" = type { %"struct.std::_Vector_base<float, std::allocator<float>>::_Vector_impl" }
%"struct.std::_Vector_base<float, std::allocator<float>>::_Vector_impl" = type { %"struct.std::_Vector_base<float, std::allocator<float>>::_Vector_impl_data" }
%"struct.std::_Vector_base<float, std::allocator<float>>::_Vector_impl_data" = type { ptr, ptr, ptr }
%"class.std::vector.24" = type { %"struct.std::_Vector_base.25" }
%"struct.std::_Vector_base.25" = type { %"struct.std::_Vector_base<vcg::Point3<float>, std::allocator<vcg::Point3<float>>>::_Vector_impl" }
%"struct.std::_Vector_base<vcg::Point3<float>, std::allocator<vcg::Point3<float>>>::_Vector_impl" = type { %"struct.std::_Vector_base<vcg::Point3<float>, std::allocator<vcg::Point3<float>>>::_Vector_impl_data" }
%"struct.std::_Vector_base<vcg::Point3<float>, std::allocator<vcg::Point3<float>>>::_Vector_impl_data" = type { ptr, ptr, ptr }
%"class.std::vector.29" = type { %"struct.std::_Bvector_base" }
%"struct.std::_Bvector_base" = type { %"struct.std::_Bvector_base<std::allocator<bool>>::_Bvector_impl" }
%"struct.std::_Bvector_base<std::allocator<bool>>::_Bvector_impl" = type { %"struct.std::_Bvector_base<std::allocator<bool>>::_Bvector_impl_data" }
%"struct.std::_Bvector_base<std::allocator<bool>>::_Bvector_impl_data" = type { %"struct.std::_Bit_iterator", %"struct.std::_Bit_iterator", ptr }
%"struct.std::_Bit_iterator" = type { %"struct.std::_Bit_iterator_base.base", [4 x i8] }
%"struct.std::_Bit_iterator_base.base" = type <{ ptr, i32 }>
%"class.vcg::Matrix44" = type { %"struct.std::array" }
%"struct.std::array" = type { [16 x float] }
%"class.vcg::Shot" = type { %"class.vcg::Camera", %"class.vcg::Shot<float>::ReferenceFrame" }
%"class.vcg::Camera" = type { float, %"class.vcg::Point2", %"class.vcg::Point2.33", %"class.vcg::Point2.33", %"class.vcg::Point2.33", %"struct.std::array.34", i32 }
%"class.vcg::Point2" = type { [2 x i32] }
%"class.vcg::Point2.33" = type { [2 x float] }
%"struct.std::array.34" = type { [4 x float] }
%"class.vcg::Shot<float>::ReferenceFrame" = type { %"class.vcg::Matrix44", %"class.vcg::Point3" }
%"class.vcg::Point3" = type { [3 x float] }
%class.RichParameterList = type { %"class.std::__cxx11::list" }
%"class.std::__cxx11::list" = type { %"class.std::__cxx11::_List_base" }
%"class.std::__cxx11::_List_base" = type { %"struct.std::__cxx11::_List_base<RichParameter *, std::allocator<RichParameter *>>::_List_impl" }
%"struct.std::__cxx11::_List_base<RichParameter *, std::allocator<RichParameter *>>::_List_impl" = type { %"struct.std::__detail::_List_node_header" }
%"struct.std::__detail::_List_node_header" = type { %"struct.std::__detail::_List_node_base", i64 }
%"struct.std::__detail::_List_node_base" = type { ptr, ptr }
%class.Ui_FilterDockDialog = type { ptr, ptr, ptr, ptr, ptr, ptr, ptr, ptr, ptr, ptr, ptr, ptr, ptr, ptr, ptr, ptr, ptr, ptr, ptr }

; Function Attrs: mustprogress uwtable
define void @_ZN16FilterDockDialog12applyDynamicEv(ptr noundef nonnull align 8 dereferenceable(1048) %0) #5 align 2 personality ptr @__gxx_personality_v0 {
  %2 = alloca ptr, align 8
  %3 = alloca %class.RichParameterList, align 8
  %4 = alloca ptr, align 8
  %5 = alloca i32, align 4
  store ptr %0, ptr %2, align 8
  %6 = load ptr, ptr %2, align 8
  %7 = getelementptr inbounds %class.FilterDockDialog, ptr %6, i32 0, i32 1
  %8 = load ptr, ptr %7, align 8
  %9 = getelementptr inbounds %class.Ui_FilterDockDialog, ptr %8, i32 0, i32 13
  %10 = load ptr, ptr %9, align 8
  %11 = call noundef zeroext i1 @_ZNK15QAbstractButton9isCheckedEv(ptr noundef nonnull align 8 dereferenceable(48) %10)
  br i1 %11, label %12, label %53

12:                                               ; preds = %1
  %13 = getelementptr inbounds %class.FilterDockDialog, ptr %6, i32 0, i32 4
  call void @_ZN17RichParameterListC1ERKS_(ptr noundef nonnull align 8 dereferenceable(24) %3, ptr noundef nonnull align 8 dereferenceable(24) %13)
  %14 = getelementptr inbounds %class.FilterDockDialog, ptr %6, i32 0, i32 11
  %15 = invoke noundef nonnull align 8 dereferenceable(24) ptr @_ZN17RichParameterListaSES_(ptr noundef nonnull align 8 dereferenceable(24) %14, ptr noundef %3)
          to label %16 unwind label %48

16:                                               ; preds = %12
  call void @_ZN17RichParameterListD1Ev(ptr noundef nonnull align 8 dereferenceable(24) %3) #3
  %17 = getelementptr inbounds %class.FilterDockDialog, ptr %6, i32 0, i32 1
  %18 = load ptr, ptr %17, align 8
  %19 = getelementptr inbounds %class.Ui_FilterDockDialog, ptr %18, i32 0, i32 12
  %20 = load ptr, ptr %19, align 8
  %21 = getelementptr inbounds %class.FilterDockDialog, ptr %6, i32 0, i32 4
  call void @_ZN22RichParameterListFrame26writeValuesOnParameterListER17RichParameterList(ptr noundef nonnull align 8 dereferenceable(200) %20, ptr noundef nonnull align 8 dereferenceable(24) %21)
  %22 = getelementptr inbounds %class.FilterDockDialog, ptr %6, i32 0, i32 1
  %23 = load ptr, ptr %22, align 8
  %24 = getelementptr inbounds %class.Ui_FilterDockDialog, ptr %23, i32 0, i32 12
  %25 = load ptr, ptr %24, align 8
  %26 = getelementptr inbounds %class.FilterDockDialog, ptr %6, i32 0, i32 11
  call void @_ZN22RichParameterListFrame26writeValuesOnParameterListER17RichParameterList(ptr noundef nonnull align 8 dereferenceable(200) %25, ptr noundef nonnull align 8 dereferenceable(24) %26)
  %27 = getelementptr inbounds %class.FilterDockDialog, ptr %6, i32 0, i32 9
  %28 = getelementptr inbounds %class.FilterDockDialog, ptr %6, i32 0, i32 14
  %29 = load ptr, ptr %28, align 8
  %30 = call noundef zeroext i1 @_ZN14MeshModelState5applyEP9MeshModel(ptr noundef nonnull align 8 dereferenceable(436) %27, ptr noundef %29)
  %31 = getelementptr inbounds %class.FilterDockDialog, ptr %6, i32 0, i32 12
  %32 = load ptr, ptr %31, align 8
  %33 = getelementptr inbounds %class.FilterDockDialog, ptr %6, i32 0, i32 3
  %34 = load ptr, ptr %33, align 8
  %35 = getelementptr inbounds %class.FilterDockDialog, ptr %6, i32 0, i32 4
  call void @_ZN10MainWindow13executeFilterEPK7QActionRK17RichParameterListbb(ptr noundef nonnull align 8 dereferenceable(1376) %32, ptr noundef %34, ptr noundef nonnull align 8 dereferenceable(24) %35, i1 noundef zeroext true, i1 noundef zeroext false)
  %36 = getelementptr inbounds %class.FilterDockDialog, ptr %6, i32 0, i32 10
  %37 = getelementptr inbounds %class.FilterDockDialog, ptr %6, i32 0, i32 5
  %38 = load i32, ptr %37, align 8
  %39 = getelementptr inbounds %class.FilterDockDialog, ptr %6, i32 0, i32 14
  %40 = load ptr, ptr %39, align 8
  call void @_ZN14MeshModelState6createEiP9MeshModel(ptr noundef nonnull align 8 dereferenceable(436) %36, i32 noundef %38, ptr noundef %40)
  %41 = getelementptr inbounds %class.FilterDockDialog, ptr %6, i32 0, i32 7
  store i8 1, ptr %41, align 8
  %42 = getelementptr inbounds %class.FilterDockDialog, ptr %6, i32 0, i32 6
  %43 = load ptr, ptr %42, align 8
  %44 = icmp ne ptr %43, null
  br i1 %44, label %45, label %52

45:                                               ; preds = %16
  %46 = getelementptr inbounds %class.FilterDockDialog, ptr %6, i32 0, i32 6
  %47 = load ptr, ptr %46, align 8
  call void @_ZN7QWidget6updateEv(ptr noundef nonnull align 8 dereferenceable(48) %47)
  br label %52

48:                                               ; preds = %12
  %49 = landingpad { ptr, i32 }
          cleanup
  %50 = extractvalue { ptr, i32 } %49, 0
  store ptr %50, ptr %4, align 8
  %51 = extractvalue { ptr, i32 } %49, 1
  store i32 %51, ptr %5, align 4
  call void @_ZN17RichParameterListD1Ev(ptr noundef nonnull align 8 dereferenceable(24) %3) #3
  br label %54

52:                                               ; preds = %45, %16
  br label %53

53:                                               ; preds = %52, %1
  ret void

54:                                               ; preds = %48
  %55 = load ptr, ptr %4, align 8
  %56 = load i32, ptr %5, align 4
  %57 = insertvalue { ptr, i32 } poison, ptr %55, 0
  %58 = insertvalue { ptr, i32 } %57, i32 %56, 1
  resume { ptr, i32 } %58
}