; Function Attrs: mustprogress uwtable
define void @_ZN16FilterDockDialog12applyDynamicEv(ptr noundef nonnull align 8 dereferenceable(1048) %0) local_unnamed_addr #9 align 2 personality ptr @__gxx_personality_v0 {
  %2 = alloca %class.RichParameterList, align 8
  %3 = getelementptr inbounds i8, ptr %0, i64 48
  %4 = load ptr, ptr %3, align 8
  %5 = getelementptr inbounds i8, ptr %4, i64 104
  %6 = load ptr, ptr %5, align 8
  %7 = tail call noundef zeroext i1 @_ZNK15QAbstractButton9isCheckedEv(ptr noundef nonnull align 8 dereferenceable(48) %6)
  br i1 %7, label %8, label %37

8:                                                ; preds = %1
  %9 = getelementptr inbounds i8, ptr %0, i64 72
  call void @_ZN17RichParameterListC1ERKS_(ptr noundef nonnull align 8 dereferenceable(24) %2, ptr noundef nonnull align 8 dereferenceable(24) %9)
  %10 = getelementptr inbounds i8, ptr %0, i64 1000
  %11 = invoke noundef nonnull align 8 dereferenceable(24) ptr @_ZN17RichParameterListaSES_(ptr noundef nonnull align 8 dereferenceable(24) %10, ptr noundef nonnull %2)
          to label %12 unwind label %35

12:                                               ; preds = %8
  call void @_ZN17RichParameterListD1Ev(ptr noundef nonnull align 8 dereferenceable(24) %2) #18
  %13 = load ptr, ptr %3, align 8
  %14 = getelementptr inbounds i8, ptr %13, i64 96
  %15 = load ptr, ptr %14, align 8
  call void @_ZN22RichParameterListFrame26writeValuesOnParameterListER17RichParameterList(ptr noundef nonnull align 8 dereferenceable(200) %15, ptr noundef nonnull align 8 dereferenceable(24) %9)
  %16 = load ptr, ptr %3, align 8
  %17 = getelementptr inbounds i8, ptr %16, i64 96
  %18 = load ptr, ptr %17, align 8
  call void @_ZN22RichParameterListFrame26writeValuesOnParameterListER17RichParameterList(ptr noundef nonnull align 8 dereferenceable(200) %18, ptr noundef nonnull align 8 dereferenceable(24) %10)
  %19 = getelementptr inbounds i8, ptr %0, i64 120
  %20 = getelementptr inbounds i8, ptr %0, i64 1040
  %21 = load ptr, ptr %20, align 8
  %22 = call noundef zeroext i1 @_ZN14MeshModelState5applyEP9MeshModel(ptr noundef nonnull align 8 dereferenceable(436) %19, ptr noundef %21)
  %23 = getelementptr inbounds i8, ptr %0, i64 1024
  %24 = load ptr, ptr %23, align 8
  %25 = getelementptr inbounds i8, ptr %0, i64 64
  %26 = load ptr, ptr %25, align 8
  call void @_ZN10MainWindow13executeFilterEPK7QActionRK17RichParameterListbb(ptr noundef nonnull align 8 dereferenceable(1376) %24, ptr noundef %26, ptr noundef nonnull align 8 dereferenceable(24) %9, i1 noundef zeroext true, i1 noundef zeroext false)
  %27 = getelementptr inbounds i8, ptr %0, i64 560
  %28 = getelementptr inbounds i8, ptr %0, i64 96
  %29 = load i32, ptr %28, align 8
  %30 = load ptr, ptr %20, align 8
  call void @_ZN14MeshModelState6createEiP9MeshModel(ptr noundef nonnull align 8 dereferenceable(436) %27, i32 noundef %29, ptr noundef %30)
  %31 = getelementptr inbounds i8, ptr %0, i64 112
  store i8 1, ptr %31, align 8
  %32 = getelementptr inbounds i8, ptr %0, i64 104
  %33 = load ptr, ptr %32, align 8
  %.not = icmp eq ptr %33, null
  br i1 %.not, label %37, label %34

34:                                               ; preds = %12
  call void @_ZN7QWidget6updateEv(ptr noundef nonnull align 8 dereferenceable(48) %33)
  br label %37

35:                                               ; preds = %8
  %36 = landingpad { ptr, i32 }
          cleanup
  call void @_ZN17RichParameterListD1Ev(ptr noundef nonnull align 8 dereferenceable(24) %2) #18
  resume { ptr, i32 } %36

37:                                               ; preds = %12, %34, %1
  ret void
}